; Function Attrs: mustprogress uwtable
define void @_Z22ulocimp_toLegacyKey_77St17basic_string_viewIcSt11char_traitsIcEE(ptr dead_on_unwind noalias writable writeonly sret(%"class.std::optional") align 8 captures(none) initializes((16, 17)) %0, i64 %1, ptr %2) local_unnamed_addr #1 personality ptr @__gxx_personality_v0 {
  %4 = alloca %"class.std::basic_string_view", align 8
  store i64 %1, ptr %4, align 8
  %5 = getelementptr inbounds nuw i8, ptr %4, i64 8
  store ptr %2, ptr %5, align 8
  %6 = tail call fastcc noundef zeroext i1 @_ZN12_GLOBAL__N_14initEv()
  br i1 %6, label %7, label %11

7:                                                ; preds = %3
  %8 = load ptr, ptr @_ZL13gLocExtKeyMap, align 8, !tbaa !15
  %9 = call ptr @uhash_get_77(ptr noundef %8, ptr noundef nonnull %4)
  %.not = icmp eq ptr %9, null
  br i1 %.not, label %11, label %10

10:                                               ; preds = %7
  call void @llvm.memcpy.p0.p0.i64(ptr noundef nonnull align 8 dereferenceable(24) %0, ptr noundef nonnull align 8 dereferenceable(16) %9, i64 16, i1 false), !tbaa.struct !17
  br label %11

11:                                               ; preds = %7, %3, %10
  %.sink = phi i8 [ 1, %10 ], [ 0, %3 ], [ 0, %7 ]
  %12 = getelementptr inbounds nuw i8, ptr %0, i64 16
  store i8 %.sink, ptr %12, align 8, !tbaa !21
  ret void
}